; Function Attrs: mustprogress nofree norecurse nosync nounwind willreturn memory(argmem: read) uwtable
define i64 @ossl_quic_channel_get_local_stream_count_avail(ptr noundef readonly captures(none) %0, i32 noundef %1) local_unnamed_addr #6 {
  %.not.i = icmp eq i32 %1, 0
  %.v.i = select i1 %.not.i, i64 1424, i64 1432
  %3 = getelementptr inbounds nuw i8, ptr %0, i64 %.v.i
  %.v.i6 = select i1 %.not.i, i64 1368, i64 1376
  %4 = getelementptr inbounds nuw i8, ptr %0, i64 %.v.i6
  %5 = load i64, ptr %4, align 8, !tbaa !71
  %6 = load i64, ptr %3, align 8, !tbaa !71
  %7 = sub i64 %5, %6
  ret i64 %7
}